; Function Attrs: mustprogress nounwind uwtable
define hidden void @_ZN17ShenandoahFreeSet19try_recycle_trashedEP20ShenandoahHeapRegion(ptr nocapture noundef nonnull readonly align 8 dereferenceable(224) %0, ptr noundef %1) local_unnamed_addr #0 align 2 {
  %3 = getelementptr inbounds i8, ptr %1, i64 40
  %4 = load i32, ptr %3, align 8
  %5 = icmp eq i32 %4, 9
  br i1 %5, label %6, label %15

6:                                                ; preds = %2
  %7 = load ptr, ptr %0, align 8
  %8 = getelementptr inbounds i8, ptr %1, i64 8
  %9 = load ptr, ptr %8, align 8
  %10 = getelementptr inbounds i8, ptr %1, i64 48
  %11 = load ptr, ptr %10, align 8
  %12 = ptrtoint ptr %11 to i64
  %13 = ptrtoint ptr %9 to i64
  %14 = sub i64 %12, %13
  tail call void @_ZN14ShenandoahHeap13decrease_usedEm(ptr noundef nonnull align 8 dereferenceable(2657) %7, i64 noundef %14) #18
  tail call void @_ZN20ShenandoahHeapRegion7recycleEv(ptr noundef nonnull align 8 dereferenceable(96) %1) #18
  br label %15

15:                                               ; preds = %6, %2
  ret void
}